; Function Attrs: mustprogress nofree norecurse nosync nounwind willreturn memory(read, inaccessiblemem: none) uwtable
define hidden noundef zeroext i1 @_ZN7datalog23product_relation_plugin11are_alignedERKNS_16product_relationES3_(ptr noundef nonnull readnone align 8 captures(none) dereferenceable(104) %0, ptr noundef nonnull readonly align 8 captures(none) dereferenceable(48) %1, ptr noundef nonnull readonly align 8 captures(none) dereferenceable(48) %2) local_unnamed_addr #8 align 2 {
  %4 = getelementptr inbounds nuw i8, ptr %1, i64 32
  %5 = load ptr, ptr %4, align 8, !tbaa !89
  %6 = icmp eq ptr %5, null
  br i1 %6, label %_ZNK7datalog16product_relation4sizeEv.exit, label %7

7:                                                ; preds = %3
  %8 = getelementptr inbounds i8, ptr %5, i64 -4
  %9 = load i32, ptr %8, align 4, !tbaa !39
  br label %_ZNK7datalog16product_relation4sizeEv.exit

_ZNK7datalog16product_relation4sizeEv.exit:       ; preds = %3, %7
  %.0.i.i = phi i32 [ %9, %7 ], [ 0, %3 ]
  %10 = getelementptr inbounds nuw i8, ptr %2, i64 32
  %11 = load ptr, ptr %10, align 8, !tbaa !89
  %12 = icmp eq ptr %11, null
  br i1 %12, label %_ZNK7datalog16product_relation4sizeEv.exit17, label %13

13:                                               ; preds = %_ZNK7datalog16product_relation4sizeEv.exit
  %14 = getelementptr inbounds i8, ptr %11, i64 -4
  %15 = load i32, ptr %14, align 4, !tbaa !39
  br label %_ZNK7datalog16product_relation4sizeEv.exit17

_ZNK7datalog16product_relation4sizeEv.exit17:     ; preds = %_ZNK7datalog16product_relation4sizeEv.exit, %13
  %.0.i.i16 = phi i32 [ %15, %13 ], [ 0, %_ZNK7datalog16product_relation4sizeEv.exit ]
  %.not = icmp eq i32 %.0.i.i, %.0.i.i16
  br i1 %.not, label %.preheader, label %.loopexit

.preheader:                                       ; preds = %_ZNK7datalog16product_relation4sizeEv.exit17
  %.not1518 = icmp eq i32 %.0.i.i, 0
  br i1 %.not1518, label %.loopexit, label %.lr.ph.preheader

.lr.ph.preheader:                                 ; preds = %.preheader
  %wide.trip.count = zext i32 %.0.i.i to i64
  br label %.lr.ph

.lr.ph:                                           ; preds = %.lr.ph, %.lr.ph.preheader
  %indvars.iv = phi i64 [ 0, %.lr.ph.preheader ], [ %indvars.iv.next, %.lr.ph ]
  %16 = getelementptr inbounds nuw ptr, ptr %5, i64 %indvars.iv
  %17 = load ptr, ptr %16, align 8, !tbaa !92
  %18 = getelementptr inbounds nuw i8, ptr %17, i64 24
  %19 = load i32, ptr %18, align 8, !tbaa !94
  %20 = getelementptr inbounds nuw ptr, ptr %11, i64 %indvars.iv
  %21 = load ptr, ptr %20, align 8, !tbaa !92
  %22 = getelementptr inbounds nuw i8, ptr %21, i64 24
  %23 = load i32, ptr %22, align 8, !tbaa !94
  %.not14 = icmp eq i32 %19, %23
  %indvars.iv.next = add nuw nsw i64 %indvars.iv, 1
  %exitcond.not = icmp ne i64 %indvars.iv.next, %wide.trip.count
  %or.cond.not = select i1 %.not14, i1 %exitcond.not, i1 false
  br i1 %or.cond.not, label %.lr.ph, label %.loopexit, !llvm.loop !95

.loopexit:                                        ; preds = %.lr.ph, %.preheader, %_ZNK7datalog16product_relation4sizeEv.exit17
  %.012 = phi i1 [ false, %_ZNK7datalog16product_relation4sizeEv.exit17 ], [ true, %.preheader ], [ %.not14, %.lr.ph ]
  ret i1 %.012
}